; Function Attrs: nounwind uwtable
define internal void @webvtt_cancel_overrides_cb(ptr noundef %0, ptr noundef %1) #1 {
  %3 = getelementptr inbounds nuw i8, ptr %0, i64 1112
  %4 = load i32, ptr %3, align 8, !tbaa !54
  %.not1215.i = icmp eq i32 %4, 0
  br i1 %.not1215.i, label %webvtt_stack_push_pop.exit, label %.lr.ph.i

.lr.ph.i:                                         ; preds = %2
  %5 = getelementptr inbounds nuw i8, ptr %0, i64 1048
  br label %6

6:                                                ; preds = %webvtt_stack_pop.exit.i, %.lr.ph.i
  %7 = phi i32 [ %4, %.lr.ph.i ], [ %15, %webvtt_stack_pop.exit.i ]
  %8 = icmp slt i32 %7, 1
  br i1 %8, label %webvtt_stack_pop.exit.i, label %9

9:                                                ; preds = %6
  %10 = add nsw i32 %7, -1
  store i32 %10, ptr %3, align 8, !tbaa !54
  %11 = zext nneg i32 %10 to i64
  %12 = getelementptr inbounds nuw [64 x i8], ptr %5, i64 0, i64 %11
  %13 = load i8, ptr %12, align 1, !tbaa !55
  %14 = sext i8 %13 to i32
  br label %webvtt_stack_pop.exit.i

webvtt_stack_pop.exit.i:                          ; preds = %9, %6
  %.0.i.i = phi i32 [ %14, %9 ], [ 0, %6 ]
  tail call void (ptr, ptr, ...) @webvtt_print(ptr noundef nonnull %0, ptr noundef nonnull @.str.10, i32 noundef %.0.i.i)
  %15 = load i32, ptr %3, align 8, !tbaa !54
  %.not12.i = icmp eq i32 %15, 0
  br i1 %.not12.i, label %webvtt_stack_push_pop.exit, label %6, !llvm.loop !59

webvtt_stack_push_pop.exit:                       ; preds = %webvtt_stack_pop.exit.i, %2
  tail call fastcc void @webvtt_style_apply(ptr noundef nonnull %0, ptr noundef %1)
  ret void
}